; Function Attrs: mustprogress nofree norecurse nosync nounwind willreturn memory(readwrite, inaccessiblemem: none) uwtable
define internal fastcc void @engine_cpy(ptr noundef nonnull initializes((0, 80), (88, 136), (144, 156), (216, 224)) %0, ptr noundef nonnull readonly captures(none) %1) unnamed_addr #3 {
  %3 = load ptr, ptr %1, align 8, !tbaa !29
  store ptr %3, ptr %0, align 8, !tbaa !29
  %4 = getelementptr inbounds nuw i8, ptr %1, i64 8
  %5 = load ptr, ptr %4, align 8, !tbaa !30
  %6 = getelementptr inbounds nuw i8, ptr %0, i64 8
  store ptr %5, ptr %6, align 8, !tbaa !30
  %7 = getelementptr inbounds nuw i8, ptr %1, i64 16
  %8 = load ptr, ptr %7, align 8, !tbaa !35
  %9 = getelementptr inbounds nuw i8, ptr %0, i64 16
  store ptr %8, ptr %9, align 8, !tbaa !35
  %10 = getelementptr inbounds nuw i8, ptr %1, i64 24
  %11 = load ptr, ptr %10, align 8, !tbaa !36
  %12 = getelementptr inbounds nuw i8, ptr %0, i64 24
  store ptr %11, ptr %12, align 8, !tbaa !36
  %13 = getelementptr inbounds nuw i8, ptr %1, i64 32
  %14 = load ptr, ptr %13, align 8, !tbaa !37
  %15 = getelementptr inbounds nuw i8, ptr %0, i64 32
  store ptr %14, ptr %15, align 8, !tbaa !37
  %16 = getelementptr inbounds nuw i8, ptr %1, i64 40
  %17 = load ptr, ptr %16, align 8, !tbaa !38
  %18 = getelementptr inbounds nuw i8, ptr %0, i64 40
  store ptr %17, ptr %18, align 8, !tbaa !38
  %19 = getelementptr inbounds nuw i8, ptr %1, i64 48
  %20 = load ptr, ptr %19, align 8, !tbaa !39
  %21 = getelementptr inbounds nuw i8, ptr %0, i64 48
  store ptr %20, ptr %21, align 8, !tbaa !39
  %22 = getelementptr inbounds nuw i8, ptr %1, i64 56
  %23 = load ptr, ptr %22, align 8, !tbaa !40
  %24 = getelementptr inbounds nuw i8, ptr %0, i64 56
  store ptr %23, ptr %24, align 8, !tbaa !40
  %25 = getelementptr inbounds nuw i8, ptr %1, i64 64
  %26 = load ptr, ptr %25, align 8, !tbaa !41
  %27 = getelementptr inbounds nuw i8, ptr %0, i64 64
  store ptr %26, ptr %27, align 8, !tbaa !41
  %28 = getelementptr inbounds nuw i8, ptr %1, i64 72
  %29 = load ptr, ptr %28, align 8, !tbaa !42
  %30 = getelementptr inbounds nuw i8, ptr %0, i64 72
  store ptr %29, ptr %30, align 8, !tbaa !42
  %31 = getelementptr inbounds nuw i8, ptr %1, i64 88
  %32 = load ptr, ptr %31, align 8, !tbaa !43
  %33 = getelementptr inbounds nuw i8, ptr %0, i64 88
  store ptr %32, ptr %33, align 8, !tbaa !43
  %34 = getelementptr inbounds nuw i8, ptr %1, i64 96
  %35 = load ptr, ptr %34, align 8, !tbaa !44
  %36 = getelementptr inbounds nuw i8, ptr %0, i64 96
  store ptr %35, ptr %36, align 8, !tbaa !44
  %37 = getelementptr inbounds nuw i8, ptr %1, i64 104
  %38 = load ptr, ptr %37, align 8, !tbaa !45
  %39 = getelementptr inbounds nuw i8, ptr %0, i64 104
  store ptr %38, ptr %39, align 8, !tbaa !45
  %40 = getelementptr inbounds nuw i8, ptr %1, i64 112
  %41 = load ptr, ptr %40, align 8, !tbaa !46
  %42 = getelementptr inbounds nuw i8, ptr %0, i64 112
  store ptr %41, ptr %42, align 8, !tbaa !46
  %43 = getelementptr inbounds nuw i8, ptr %1, i64 120
  %44 = load ptr, ptr %43, align 8, !tbaa !47
  %45 = getelementptr inbounds nuw i8, ptr %0, i64 120
  store ptr %44, ptr %45, align 8, !tbaa !47
  %46 = getelementptr inbounds nuw i8, ptr %1, i64 128
  %47 = load ptr, ptr %46, align 8, !tbaa !48
  %48 = getelementptr inbounds nuw i8, ptr %0, i64 128
  store ptr %47, ptr %48, align 8, !tbaa !48
  %49 = getelementptr inbounds nuw i8, ptr %1, i64 144
  %50 = load ptr, ptr %49, align 8, !tbaa !49
  %51 = getelementptr inbounds nuw i8, ptr %0, i64 144
  store ptr %50, ptr %51, align 8, !tbaa !49
  %52 = getelementptr inbounds nuw i8, ptr %1, i64 152
  %53 = load i32, ptr %52, align 8, !tbaa !34
  %54 = getelementptr inbounds nuw i8, ptr %0, i64 152
  store i32 %53, ptr %54, align 8, !tbaa !34
  %55 = getelementptr inbounds nuw i8, ptr %1, i64 216
  %56 = load ptr, ptr %55, align 8, !tbaa !3
  %57 = getelementptr inbounds nuw i8, ptr %0, i64 216
  store ptr %56, ptr %57, align 8, !tbaa !3
  %58 = icmp eq ptr %56, null
  br i1 %58, label %engine_add_dynamic_id.exit, label %59

59:                                               ; preds = %2
  %.pre.i = load ptr, ptr @engine_dyn_list_head, align 8, !tbaa !22
  %60 = icmp eq ptr %.pre.i, null
  %61 = load ptr, ptr @engine_dyn_list_tail, align 8, !tbaa !22
  %.not31.i = icmp eq ptr %61, null
  br i1 %60, label %62, label %64

62:                                               ; preds = %59
  br i1 %.not31.i, label %63, label %engine_add_dynamic_id.exit

63:                                               ; preds = %62
  store ptr %0, ptr @engine_dyn_list_head, align 8, !tbaa !22
  br label %69

64:                                               ; preds = %59
  br i1 %.not31.i, label %engine_add_dynamic_id.exit, label %65

65:                                               ; preds = %64
  %66 = getelementptr inbounds nuw i8, ptr %61, i64 208
  %67 = load ptr, ptr %66, align 8, !tbaa !25
  %.not30.i = icmp eq ptr %67, null
  br i1 %.not30.i, label %68, label %engine_add_dynamic_id.exit

68:                                               ; preds = %65
  store ptr %0, ptr %66, align 8, !tbaa !25
  br label %69

69:                                               ; preds = %68, %63
  %.sink.i = phi ptr [ %61, %68 ], [ null, %63 ]
  %70 = getelementptr inbounds nuw i8, ptr %0, i64 200
  store ptr %.sink.i, ptr %70, align 8, !tbaa !26
  store ptr %0, ptr @engine_dyn_list_tail, align 8, !tbaa !22
  %71 = getelementptr inbounds nuw i8, ptr %0, i64 208
  store ptr null, ptr %71, align 8, !tbaa !25
  br label %engine_add_dynamic_id.exit

engine_add_dynamic_id.exit:                       ; preds = %62, %64, %65, %69, %2
  ret void
}